; ModuleID = '11/559.c'
source_filename = "11/559.c"
target datalayout = "e-m:e-p270:32:32-p271:32:32-p272:64:64-i64:64-f80:128-n8:16:32:64-S128"
target triple = "x86_64-pc-linux-gnu"

@.str = private unnamed_addr constant [7 x i8] c"%d%d%d\00", align 1
@__const.main.s = private unnamed_addr constant [12 x i32] [i32 31, i32 28, i32 31, i32 30, i32 31, i32 30, i32 31, i32 31, i32 30, i32 31, i32 30, i32 31], align 16
@.str.1 = private unnamed_addr constant [3 x i8] c"%d\00", align 1

; Function Attrs: noinline nounwind uwtable
define dso_local i32 @main(i32 %0, i8** %1) #0 {
  %3 = alloca i32, align 4
  %4 = alloca i32, align 4
  %5 = alloca i8**, align 8
  %6 = alloca i32, align 4
  %7 = alloca i32, align 4
  %8 = alloca i32, align 4
  %9 = alloca [12 x i32], align 16
  %10 = alloca i32, align 4
  %11 = alloca i32, align 4
  %12 = alloca i32, align 4
  store i32 0, i32* %3, align 4
  store i32 %0, i32* %4, align 4
  store i8** %1, i8*** %5, align 8
  %13 = call i32 (i8*, ...) @__isoc99_scanf(i8* getelementptr inbounds ([7 x i8], [7 x i8]* @.str, i64 0, i64 0), i32* %6, i32* %7, i32* %8)
  %14 = bitcast [12 x i32]* %9 to i8*
  call void @llvm.memcpy.p0i8.p0i8.i64(i8* align 16 %14, i8* align 16 bitcast ([12 x i32]* @__const.main.s to i8*), i64 48, i1 false)
  store i32 0, i32* %10, align 4
  store i32 0, i32* %11, align 4
  store i32 0, i32* %10, align 4
  br label %15

15:                                               ; preds = %27, %2
  %16 = load i32, i32* %10, align 4
  %17 = load i32, i32* %7, align 4
  %18 = sub nsw i32 %17, 1
  %19 = icmp slt i32 %16, %18
  br i1 %19, label %20, label %30

20:                                               ; preds = %15
  %21 = load i32, i32* %10, align 4
  %22 = sext i32 %21 to i64
  %23 = getelementptr inbounds [12 x i32], [12 x i32]* %9, i64 0, i64 %22
  %24 = load i32, i32* %23, align 4
  %25 = load i32, i32* %11, align 4
  %26 = add nsw i32 %25, %24
  store i32 %26, i32* %11, align 4
  br label %27

27:                                               ; preds = %20
  %28 = load i32, i32* %10, align 4
  %29 = add nsw i32 %28, 1
  store i32 %29, i32* %10, align 4
  br label %15

30:                                               ; preds = %15
  %31 = load i32, i32* %6, align 4
  %32 = srem i32 %31, 4
  %33 = icmp eq i32 %32, 0
  br i1 %33, label %34, label %38

34:                                               ; preds = %30
  %35 = load i32, i32* %6, align 4
  %36 = srem i32 %35, 100
  %37 = icmp ne i32 %36, 0
  br i1 %37, label %42, label %38

38:                                               ; preds = %34, %30
  %39 = load i32, i32* %6, align 4
  %40 = srem i32 %39, 400
  %41 = icmp eq i32 %40, 0
  br i1 %41, label %42, label %53

42:                                               ; preds = %38, %34
  %43 = load i32, i32* %7, align 4
  %44 = icmp ne i32 %43, 1
  br i1 %44, label %45, label %53

45:                                               ; preds = %42
  %46 = load i32, i32* %7, align 4
  %47 = icmp ne i32 %46, 2
  br i1 %47, label %48, label %53

48:                                               ; preds = %45
  %49 = load i32, i32* %11, align 4
  %50 = load i32, i32* %8, align 4
  %51 = add nsw i32 %49, %50
  %52 = add nsw i32 %51, 1
  store i32 %52, i32* %12, align 4
  br label %57

53:                                               ; preds = %45, %42, %38
  %54 = load i32, i32* %11, align 4
  %55 = load i32, i32* %8, align 4
  %56 = add nsw i32 %54, %55
  store i32 %56, i32* %12, align 4
  br label %57

57:                                               ; preds = %53, %48
  %58 = load i32, i32* %12, align 4
  %59 = call i32 (i8*, ...) @printf(i8* getelementptr inbounds ([3 x i8], [3 x i8]* @.str.1, i64 0, i64 0), i32 %58)
  ret i32 0
}

declare dso_local i32 @__isoc99_scanf(i8*, ...) #1

; Function Attrs: argmemonly nounwind willreturn
declare void @llvm.memcpy.p0i8.p0i8.i64(i8* noalias nocapture writeonly, i8* noalias nocapture readonly, i64, i1 immarg) #2

declare dso_local i32 @printf(i8*, ...) #1


!llvm.module.flags = !{!0}
!llvm.ident = !{!1}

!0 = !{i32 1, !"wchar_size", i32 4}
!1 = !{!"clang version 10.0.0-4ubuntu1 "}
